target datalayout = "e-m:e-p270:32:32-p271:32:32-p272:64:64-i64:64-i128:128-f80:128-n8:16:32:64-S128"
target triple = "x86_64-pc-linux-gnu"

%struct.PyCompilerFlags = type { i32, i32 }

@exec_interpreter.kwlist = internal global [4 x ptr] [ptr @.str.243, ptr @.str.245, ptr @.str.246, ptr null], align 16
@.str.247 = private unnamed_addr constant [23 x i8] c"Os|$p:exec_interpreter\00", align 1

; Function Attrs: nounwind uwtable
define internal ptr @exec_interpreter(ptr noundef %0, ptr noundef %1, ptr noundef %2) #0 {
  %4 = alloca ptr, align 8
  %5 = alloca ptr, align 8
  %6 = alloca ptr, align 8
  %7 = alloca ptr, align 8
  %8 = alloca ptr, align 8
  %9 = alloca ptr, align 8
  %10 = alloca i32, align 4
  %11 = alloca i32, align 4
  %12 = alloca ptr, align 8
  %13 = alloca ptr, align 8
  %14 = alloca ptr, align 8
  %15 = alloca ptr, align 8
  %16 = alloca %struct.PyCompilerFlags, align 4
  %17 = alloca i32, align 4
  store ptr %0, ptr %5, align 8, !tbaa !3
  store ptr %1, ptr %6, align 8, !tbaa !3
  store ptr %2, ptr %7, align 8, !tbaa !3
  call void @llvm.lifetime.start.p0(i64 8, ptr %8) #10
  call void @llvm.lifetime.start.p0(i64 8, ptr %9) #10
  call void @llvm.lifetime.start.p0(i64 4, ptr %10) #10
  store i32 0, ptr %10, align 4, !tbaa !26
  %18 = load ptr, ptr %6, align 8, !tbaa !3
  %19 = load ptr, ptr %7, align 8, !tbaa !3
  %20 = call i32 (ptr, ptr, ptr, ptr, ...) @PyArg_ParseTupleAndKeywords(ptr noundef %18, ptr noundef %19, ptr noundef @.str.247, ptr noundef @exec_interpreter.kwlist, ptr noundef %8, ptr noundef %9, ptr noundef %10)
  %21 = icmp ne i32 %20, 0
  br i1 %21, label %23, label %22

22:                                               ; preds = %3
  store ptr null, ptr %4, align 8
  store i32 1, ptr %11, align 4
  br label %64

23:                                               ; preds = %3
  call void @llvm.lifetime.start.p0(i64 8, ptr %12) #10
  %24 = load ptr, ptr %8, align 8, !tbaa !3
  %25 = call ptr @_PyInterpreterState_LookUpIDObject(ptr noundef %24)
  store ptr %25, ptr %12, align 8, !tbaa !49
  %26 = load ptr, ptr %12, align 8, !tbaa !49
  %27 = icmp eq ptr %26, null
  br i1 %27, label %28, label %29

28:                                               ; preds = %23
  store ptr null, ptr %4, align 8
  store i32 1, ptr %11, align 4
  br label %63

29:                                               ; preds = %23
  call void @llvm.lifetime.start.p0(i64 8, ptr %13) #10
  store ptr null, ptr %13, align 8, !tbaa !3
  call void @llvm.lifetime.start.p0(i64 8, ptr %14) #10
  %30 = load ptr, ptr %12, align 8, !tbaa !49
  %31 = call ptr @_PyThreadState_NewBound(ptr noundef %30, i32 noundef 5)
  store ptr %31, ptr %14, align 8, !tbaa !9
  call void @llvm.lifetime.start.p0(i64 8, ptr %15) #10
  %32 = load ptr, ptr %14, align 8, !tbaa !9
  %33 = call ptr @PyThreadState_Swap(ptr noundef %32)
  store ptr %33, ptr %15, align 8, !tbaa !9
  %34 = load i32, ptr %10, align 4, !tbaa !26
  %35 = icmp ne i32 %34, 0
  br i1 %35, label %36, label %42

36:                                               ; preds = %29
  %37 = load ptr, ptr %12, align 8, !tbaa !49
  %38 = call i32 @_PyInterpreterState_SetRunningMain(ptr noundef %37)
  %39 = icmp slt i32 %38, 0
  br i1 %39, label %40, label %41

40:                                               ; preds = %36
  br label %57

41:                                               ; preds = %36
  br label %42

42:                                               ; preds = %41, %29
  call void @llvm.memset.p0.i64(ptr align 4 %16, i8 0, i64 8, i1 false)
  %43 = load ptr, ptr %9, align 8, !tbaa !46
  %44 = call i32 @PyRun_SimpleStringFlags(ptr noundef %43, ptr noundef %16)
  store i32 %44, ptr %17, align 4, !tbaa !26
  %45 = call ptr @PyErr_Occurred()
  %46 = icmp ne ptr %45, null
  br i1 %46, label %47, label %48

47:                                               ; preds = %42
  call void @PyErr_PrintEx(i32 noundef 0)
  br label %48

48:                                               ; preds = %47, %42
  %49 = load i32, ptr %10, align 4, !tbaa !26
  %50 = icmp ne i32 %49, 0
  br i1 %50, label %51, label %53

51:                                               ; preds = %48
  %52 = load ptr, ptr %12, align 8, !tbaa !49
  call void @_PyInterpreterState_SetNotRunningMain(ptr noundef %52)
  br label %53

53:                                               ; preds = %51, %48
  %54 = load i32, ptr %17, align 4, !tbaa !26
  %55 = sext i32 %54 to i64
  %56 = call ptr @PyLong_FromLong(i64 noundef %55)
  store ptr %56, ptr %13, align 8, !tbaa !3
  br label %57

57:                                               ; preds = %53, %40
  %58 = load ptr, ptr %14, align 8, !tbaa !9
  call void @PyThreadState_Clear(ptr noundef %58)
  %59 = load ptr, ptr %15, align 8, !tbaa !9
  %60 = call ptr @PyThreadState_Swap(ptr noundef %59)
  %61 = load ptr, ptr %14, align 8, !tbaa !9
  call void @PyThreadState_Delete(ptr noundef %61)
  %62 = load ptr, ptr %13, align 8, !tbaa !3
  store ptr %62, ptr %4, align 8
  store i32 1, ptr %11, align 4
  call void @llvm.lifetime.end.p0(i64 8, ptr %15) #10
  call void @llvm.lifetime.end.p0(i64 8, ptr %14) #10
  call void @llvm.lifetime.end.p0(i64 8, ptr %13) #10
  br label %63

63:                                               ; preds = %57, %28
  call void @llvm.lifetime.end.p0(i64 8, ptr %12) #10
  br label %64

64:                                               ; preds = %63, %22
  call void @llvm.lifetime.end.p0(i64 4, ptr %10) #10
  call void @llvm.lifetime.end.p0(i64 8, ptr %9) #10
  call void @llvm.lifetime.end.p0(i64 8, ptr %8) #10
  %65 = load ptr, ptr %4, align 8
  ret ptr %65
}