; Function Attrs: nounwind uwtable
define internal ptr @exec_interpreter(ptr readnone captures(none) %0, ptr noundef %1, ptr noundef %2) #0 {
  %4 = alloca ptr, align 8
  %5 = alloca ptr, align 8
  %6 = alloca i32, align 4
  %7 = alloca %struct.PyCompilerFlags, align 8
  call void @llvm.lifetime.start.p0(i64 8, ptr nonnull %4) #11
  call void @llvm.lifetime.start.p0(i64 8, ptr nonnull %5) #11
  call void @llvm.lifetime.start.p0(i64 4, ptr nonnull %6) #11
  store i32 0, ptr %6, align 4, !tbaa !25
  %8 = call i32 (ptr, ptr, ptr, ptr, ...) @PyArg_ParseTupleAndKeywords(ptr noundef %1, ptr noundef %2, ptr noundef nonnull @.str.247, ptr noundef nonnull @exec_interpreter.kwlist, ptr noundef nonnull %4, ptr noundef nonnull %5, ptr noundef nonnull %6) #11
  %.not = icmp eq i32 %8, 0
  br i1 %.not, label %33, label %9

9:                                                ; preds = %3
  %10 = load ptr, ptr %4, align 8, !tbaa !9
  %11 = call ptr @_PyInterpreterState_LookUpIDObject(ptr noundef %10) #11
  %12 = icmp eq ptr %11, null
  br i1 %12, label %33, label %13

13:                                               ; preds = %9
  %14 = call ptr @_PyThreadState_NewBound(ptr noundef nonnull %11, i32 noundef 5) #11
  %15 = call ptr @PyThreadState_Swap(ptr noundef %14) #11
  %16 = load i32, ptr %6, align 4, !tbaa !25
  %.not14 = icmp eq i32 %16, 0
  br i1 %.not14, label %20, label %17

17:                                               ; preds = %13
  %18 = call i32 @_PyInterpreterState_SetRunningMain(ptr noundef nonnull %11) #11
  %19 = icmp slt i32 %18, 0
  br i1 %19, label %31, label %20

20:                                               ; preds = %17, %13
  store i64 0, ptr %7, align 8
  %21 = load ptr, ptr %5, align 8, !tbaa !41
  %22 = call i32 @PyRun_SimpleStringFlags(ptr noundef %21, ptr noundef nonnull %7) #11
  %23 = call ptr @PyErr_Occurred() #11
  %.not15 = icmp eq ptr %23, null
  br i1 %.not15, label %25, label %24

24:                                               ; preds = %20
  call void @PyErr_PrintEx(i32 noundef 0) #11
  br label %25

25:                                               ; preds = %24, %20
  %26 = load i32, ptr %6, align 4, !tbaa !25
  %.not16 = icmp eq i32 %26, 0
  br i1 %.not16, label %28, label %27

27:                                               ; preds = %25
  call void @_PyInterpreterState_SetNotRunningMain(ptr noundef nonnull %11) #11
  br label %28

28:                                               ; preds = %27, %25
  %29 = sext i32 %22 to i64
  %30 = call ptr @PyLong_FromLong(i64 noundef %29) #11
  br label %31

31:                                               ; preds = %17, %28
  %.012 = phi ptr [ null, %17 ], [ %30, %28 ]
  call void @PyThreadState_Clear(ptr noundef %14) #11
  %32 = call ptr @PyThreadState_Swap(ptr noundef %15) #11
  call void @PyThreadState_Delete(ptr noundef %14) #11
  br label %33

33:                                               ; preds = %31, %9, %3
  %.0 = phi ptr [ null, %3 ], [ %.012, %31 ], [ null, %9 ]
  call void @llvm.lifetime.end.p0(i64 4, ptr nonnull %6) #11
  call void @llvm.lifetime.end.p0(i64 8, ptr nonnull %5) #11
  call void @llvm.lifetime.end.p0(i64 8, ptr nonnull %4) #11
  ret ptr %.0
}